target datalayout = "e-m:e-p270:32:32-p271:32:32-p272:64:64-i64:64-i128:128-f80:128-n8:16:32:64-S128"
target triple = "x86_64-unknown-linux-gnu"

%class.btMatrix3x3 = type { [3 x %class.btVector3] }
%class.btVector3 = type { [4 x float] }
%class.btDeformableContactConstraint = type { ptr, i8, ptr, %class.btVector3 }
%class.btReducedDeformableRigidContactConstraint = type <{ %class.btDeformableRigidContactConstraint, i8, i8, [2 x i8], i32, i32, [4 x i8], ptr, ptr, float, float, float, float, float, float, float, float, float, float, float, float, float, float, float, float, float, %class.btVector3, %class.btVector3, %class.btVector3, %class.btVector3, %class.btVector3, %class.btVector3, %class.btMatrix3x3, %class.btVector3, %class.btVector3, %class.btVector3, %class.btVector3, %class.btVector3, %class.btVector3, [4 x i8] }>
%class.btDeformableRigidContactConstraint = type { %class.btDeformableContactConstraint, %class.btVector3, %class.btVector3, float, float, i8, ptr }

; Function Attrs: mustprogress nounwind uwtable
define linkonce_odr dso_local noundef float @_ZNK9btVector33dotERKS_(ptr noundef nonnull align 4 dereferenceable(16) %this, ptr noundef nonnull align 4 dereferenceable(16) %v) #1 comdat align 2 {
entry:
  %this.addr = alloca ptr, align 8
  %v.addr = alloca ptr, align 8
  store ptr %this, ptr %this.addr, align 8
  store ptr %v, ptr %v.addr, align 8
  %this1 = load ptr, ptr %this.addr, align 8
  %m_floats = getelementptr inbounds %class.btVector3, ptr %this1, i32 0, i32 0
  %arrayidx = getelementptr inbounds [4 x float], ptr %m_floats, i64 0, i64 0
  %0 = load float, ptr %arrayidx, align 4
  %1 = load ptr, ptr %v.addr, align 8
  %m_floats2 = getelementptr inbounds %class.btVector3, ptr %1, i32 0, i32 0
  %arrayidx3 = getelementptr inbounds [4 x float], ptr %m_floats2, i64 0, i64 0
  %2 = load float, ptr %arrayidx3, align 4
  %m_floats4 = getelementptr inbounds %class.btVector3, ptr %this1, i32 0, i32 0
  %arrayidx5 = getelementptr inbounds [4 x float], ptr %m_floats4, i64 0, i64 1
  %3 = load float, ptr %arrayidx5, align 4
  %4 = load ptr, ptr %v.addr, align 8
  %m_floats6 = getelementptr inbounds %class.btVector3, ptr %4, i32 0, i32 0
  %arrayidx7 = getelementptr inbounds [4 x float], ptr %m_floats6, i64 0, i64 1
  %5 = load float, ptr %arrayidx7, align 4
  %mul8 = fmul float %3, %5
  %6 = call float @llvm.fmuladd.f32(float %0, float %2, float %mul8)
  %m_floats9 = getelementptr inbounds %class.btVector3, ptr %this1, i32 0, i32 0
  %arrayidx10 = getelementptr inbounds [4 x float], ptr %m_floats9, i64 0, i64 2
  %7 = load float, ptr %arrayidx10, align 4
  %8 = load ptr, ptr %v.addr, align 8
  %m_floats11 = getelementptr inbounds %class.btVector3, ptr %8, i32 0, i32 0
  %arrayidx12 = getelementptr inbounds [4 x float], ptr %m_floats11, i64 0, i64 2
  %9 = load float, ptr %arrayidx12, align 4
  %10 = call float @llvm.fmuladd.f32(float %7, float %9, float %6)
  ret float %10
}

; Function Attrs: mustprogress nounwind uwtable
define linkonce_odr dso_local noundef float @_Z5btDotRK9btVector3S1_(ptr noundef nonnull align 4 dereferenceable(16) %v1, ptr noundef nonnull align 4 dereferenceable(16) %v2) #1 comdat {
entry:
  %v1.addr = alloca ptr, align 8
  %v2.addr = alloca ptr, align 8
  store ptr %v1, ptr %v1.addr, align 8
  store ptr %v2, ptr %v2.addr, align 8
  %0 = load ptr, ptr %v1.addr, align 8
  %1 = load ptr, ptr %v2.addr, align 8
  %call = call noundef float @_ZNK9btVector33dotERKS_(ptr noundef nonnull align 4 dereferenceable(16) %0, ptr noundef nonnull align 4 dereferenceable(16) %1)
  ret float %call
}

; Function Attrs: mustprogress uwtable
define dso_local void @_ZN41btReducedDeformableRigidContactConstraint26calculateTangentialImpulseERfS0_ffRK9btVector3ffS3_(ptr noundef nonnull align 8 dereferenceable(436) %this, ptr noundef nonnull align 4 dereferenceable(4) %deltaImpulse_tangent, ptr noundef nonnull align 4 dereferenceable(4) %appliedImpulse, float noundef %rhs_tangent, float noundef %tangentImpulseFactorInv, ptr noundef nonnull align 4 dereferenceable(16) %tangent, float noundef %lower_limit, float noundef %upper_limit, ptr noundef nonnull align 4 dereferenceable(16) %deltaV_rel) #6 align 2 {
entry:
  %this.addr = alloca ptr, align 8
  %deltaImpulse_tangent.addr = alloca ptr, align 8
  %appliedImpulse.addr = alloca ptr, align 8
  %rhs_tangent.addr = alloca float, align 4
  %tangentImpulseFactorInv.addr = alloca float, align 4
  %tangent.addr = alloca ptr, align 8
  %lower_limit.addr = alloca float, align 4
  %upper_limit.addr = alloca float, align 4
  %deltaV_rel.addr = alloca ptr, align 8
  %deltaV_rel_tangent = alloca float, align 4
  %impulse_changed = alloca float, align 4
  %sum = alloca float, align 4
  store ptr %this, ptr %this.addr, align 8
  store ptr %deltaImpulse_tangent, ptr %deltaImpulse_tangent.addr, align 8
  store ptr %appliedImpulse, ptr %appliedImpulse.addr, align 8
  store float %rhs_tangent, ptr %rhs_tangent.addr, align 4
  store float %tangentImpulseFactorInv, ptr %tangentImpulseFactorInv.addr, align 4
  store ptr %tangent, ptr %tangent.addr, align 8
  store float %lower_limit, ptr %lower_limit.addr, align 4
  store float %upper_limit, ptr %upper_limit.addr, align 4
  store ptr %deltaV_rel, ptr %deltaV_rel.addr, align 8
  %this1 = load ptr, ptr %this.addr, align 8
  %0 = load ptr, ptr %deltaV_rel.addr, align 8
  %1 = load ptr, ptr %tangent.addr, align 8
  %call = call noundef float @_Z5btDotRK9btVector3S1_(ptr noundef nonnull align 4 dereferenceable(16) %0, ptr noundef nonnull align 4 dereferenceable(16) %1)
  store float %call, ptr %deltaV_rel_tangent, align 4
  %2 = load float, ptr %deltaV_rel_tangent, align 4
  %3 = load float, ptr %tangentImpulseFactorInv.addr, align 4
  %mul = fmul float %2, %3
  store float %mul, ptr %impulse_changed, align 4
  %4 = load float, ptr %rhs_tangent.addr, align 4
  %m_cfm_friction = getelementptr inbounds %class.btReducedDeformableRigidContactConstraint, ptr %this1, i32 0, i32 22
  %5 = load float, ptr %m_cfm_friction, align 4
  %6 = load ptr, ptr %appliedImpulse.addr, align 8
  %7 = load float, ptr %6, align 4
  %neg = fneg float %5
  %8 = call float @llvm.fmuladd.f32(float %neg, float %7, float %4)
  %9 = load float, ptr %impulse_changed, align 4
  %sub = fsub float %8, %9
  %10 = load ptr, ptr %deltaImpulse_tangent.addr, align 8
  store float %sub, ptr %10, align 4
  %11 = load ptr, ptr %appliedImpulse.addr, align 8
  %12 = load float, ptr %11, align 4
  %13 = load ptr, ptr %deltaImpulse_tangent.addr, align 8
  %14 = load float, ptr %13, align 4
  %add = fadd float %12, %14
  store float %add, ptr %sum, align 4
  %15 = load float, ptr %sum, align 4
  %16 = load float, ptr %upper_limit.addr, align 4
  %cmp = fcmp ogt float %15, %16
  br i1 %cmp, label %if.then, label %if.else

if.then:                                          ; preds = %entry
  %17 = load float, ptr %upper_limit.addr, align 4
  %18 = load ptr, ptr %appliedImpulse.addr, align 8
  %19 = load float, ptr %18, align 4
  %sub3 = fsub float %17, %19
  %20 = load ptr, ptr %deltaImpulse_tangent.addr, align 8
  store float %sub3, ptr %20, align 4
  %21 = load float, ptr %upper_limit.addr, align 4
  %22 = load ptr, ptr %appliedImpulse.addr, align 8
  store float %21, ptr %22, align 4
  br label %if.end8

if.else:                                          ; preds = %entry
  %23 = load float, ptr %sum, align 4
  %24 = load float, ptr %lower_limit.addr, align 4
  %cmp4 = fcmp olt float %23, %24
  br i1 %cmp4, label %if.then5, label %if.else7

if.then5:                                         ; preds = %if.else
  %25 = load float, ptr %lower_limit.addr, align 4
  %26 = load ptr, ptr %appliedImpulse.addr, align 8
  %27 = load float, ptr %26, align 4
  %sub6 = fsub float %25, %27
  %28 = load ptr, ptr %deltaImpulse_tangent.addr, align 8
  store float %sub6, ptr %28, align 4
  %29 = load float, ptr %lower_limit.addr, align 4
  %30 = load ptr, ptr %appliedImpulse.addr, align 8
  store float %29, ptr %30, align 4
  br label %if.end

if.else7:                                         ; preds = %if.else
  %31 = load float, ptr %sum, align 4
  %32 = load ptr, ptr %appliedImpulse.addr, align 8
  store float %31, ptr %32, align 4
  br label %if.end

if.end:                                           ; preds = %if.else7, %if.then5
  br label %if.end8

if.end8:                                          ; preds = %if.end, %if.then
  ret void
}