; Function Attrs: mustprogress nofree norecurse nosync nounwind willreturn memory(argmem: readwrite) uwtable
define dso_local void @_ZN41btReducedDeformableRigidContactConstraint26calculateTangentialImpulseERfS0_ffRK9btVector3ffS3_(ptr nocapture noundef nonnull readonly align 8 dereferenceable(436) %this, ptr nocapture noundef nonnull writeonly align 4 dereferenceable(4) %deltaImpulse_tangent, ptr nocapture noundef nonnull align 4 dereferenceable(4) %appliedImpulse, float noundef %rhs_tangent, float noundef %tangentImpulseFactorInv, ptr nocapture noundef nonnull readonly align 4 dereferenceable(16) %tangent, float noundef %lower_limit, float noundef %upper_limit, ptr nocapture noundef nonnull readonly align 4 dereferenceable(16) %deltaV_rel) local_unnamed_addr #8 align 2 {
entry:
  %0 = load float, ptr %deltaV_rel, align 4
  %1 = load float, ptr %tangent, align 4
  %arrayidx5.i.i = getelementptr inbounds i8, ptr %deltaV_rel, i64 4
  %2 = load float, ptr %arrayidx5.i.i, align 4
  %arrayidx7.i.i = getelementptr inbounds i8, ptr %tangent, i64 4
  %3 = load float, ptr %arrayidx7.i.i, align 4
  %mul8.i.i = fmul float %2, %3
  %4 = tail call float @llvm.fmuladd.f32(float %0, float %1, float %mul8.i.i)
  %arrayidx10.i.i = getelementptr inbounds i8, ptr %deltaV_rel, i64 8
  %5 = load float, ptr %arrayidx10.i.i, align 4
  %arrayidx12.i.i = getelementptr inbounds i8, ptr %tangent, i64 8
  %6 = load float, ptr %arrayidx12.i.i, align 4
  %7 = tail call noundef float @llvm.fmuladd.f32(float %5, float %6, float %4)
  %mul = fmul float %7, %tangentImpulseFactorInv
  %m_cfm_friction = getelementptr inbounds i8, ptr %this, i64 180
  %8 = load float, ptr %m_cfm_friction, align 4
  %9 = load float, ptr %appliedImpulse, align 4
  %neg = fneg float %8
  %10 = tail call float @llvm.fmuladd.f32(float %neg, float %9, float %rhs_tangent)
  %sub = fsub float %10, %mul
  store float %sub, ptr %deltaImpulse_tangent, align 4
  %11 = load float, ptr %appliedImpulse, align 4
  %add = fadd float %11, %sub
  %cmp = fcmp ogt float %add, %upper_limit
  br i1 %cmp, label %if.end8.sink.split, label %if.else

if.else:                                          ; preds = %entry
  %cmp4 = fcmp olt float %add, %lower_limit
  br i1 %cmp4, label %if.end8.sink.split, label %if.end8

if.end8.sink.split:                               ; preds = %if.else, %entry
  %lower_limit.sink16 = phi float [ %upper_limit, %entry ], [ %lower_limit, %if.else ]
  %sub6 = fsub float %lower_limit.sink16, %11
  store float %sub6, ptr %deltaImpulse_tangent, align 4
  br label %if.end8

if.end8:                                          ; preds = %if.end8.sink.split, %if.else
  %lower_limit.sink = phi float [ %add, %if.else ], [ %lower_limit.sink16, %if.end8.sink.split ]
  store float %lower_limit.sink, ptr %appliedImpulse, align 4
  ret void
}